Certificate:
    Data:
        Version: 3 (0x2)
        Serial Number: 1 (0x1)
    Signature Algorithm: sha256WithRSAEncryption
        Issuer: C=us, ST=localhost, L=localhost, O=localhost, OU=localhost, CN=localhost/emailAddress=localhost
        Validity
            Not Before: Dec  8 08:55:55 2017 GMT
            Not After : Sep  3 08:55:55 2020 GMT
        Subject: C=us, ST=localhost, L=localhost, O=localhost, CN=localhost
        Subject Public Key Info:
            Public Key Algorithm: rsaEncryption
                Public-Key: (2048 bit)
                Modulus:
                    00:a3:bd:18:58:80:6c:5d:41:02:2d:13:9f:91:bf:
                    bb:e6:f5:36:75:fd:86:db:3e:3f:8b:30:13:bc:3b:
                    b2:8d:36:bd:4c:cb:7a:d5:b7:a3:d2:07:c1:54:4d:
                    9a:6b:a4:b1:9f:b7:c7:82:b1:b9:b7:2a:10:84:07:
                    05:0e:b8:17:60:23:99:ac:22:1d:d4:0a:82:d8:cc:
                    a6:78:a2:57:49:8f:63:6e:f0:1b:1f:69:a8:54:c4:
                    c9:d2:9f:39:b2:f7:da:6f:11:63:82:fd:9f:76:c8:
                    90:55:04:d8:72:e4:58:6f:ad:d3:e8:3e:4c:96:8a:
                    82:68:53:d2:3f:0c:4b:a3:d7:ba:6c:d7:a9:49:7f:
                    0b:4c:ac:40:fc:5e:09:2a:1a:c3:2b:0c:2a:ad:d3:
                    72:04:78:de:52:fc:14:a4:be:80:08:19:68:a1:05:
                    0d:19:a7:de:f1:a0:0c:bc:a1:4e:4b:5b:24:43:c8:
                    15:f8:34:0f:70:d1:fe:c6:15:94:10:2e:7d:c6:38:
                    88:82:64:75:06:4b:3b:1a:80:55:0f:ab:ad:66:46:
                    a7:1d:aa:2c:c2:b0:f8:5f:c1:04:02:01:56:21:d6:
                    9d:fb:0a:ac:62:0e:d5:e9:3a:99:02:9d:59:29:0a:
                    f9:f3:bd:65:6f:89:3c:f2:bb:67:37:87:7b:2d:bc:
                    94:f1
                Exponent: 65537 (0x10001)
        X509v3 extensions:
            X509v3 Subject Key Identifier: 
                7A:6B:02:5D:5D:16:75:21:0B:F8:93:2B:E8:D4:86:23:B2:2C:BD:7B
            X509v3 Authority Key Identifier: 
                keyid:7E:83:90:6C:F8:40:AE:D8:62:9B:E2:55:FB:12:E8:4E:1F:3E:1F:C9

            X509v3 Basic Constraints: 
                CA:FALSE
            X509v3 Key Usage: 
                Digital Signature, Key Encipherment
            X509v3 Subject Alternative Name: 
                DNS:example.com, DNS:www.example.com, DNS:mail.example.com, DNS:ftp.example.com, IP Address:127.0.0.1, IP Address:0:0:0:0:0:0:0:1
            Netscape Comment: 
                OpenSSL Generated Certificate
    Signature Algorithm: sha256WithRSAEncryption
         5d:64:c3:f7:2d:31:65:39:79:ca:00:a5:b0:5e:56:62:b9:1b:
         c0:40:f0:73:de:db:a4:a2:0f:4f:18:5f:33:c6:43:a8:dd:25:
         b8:61:0d:9b:9d:1e:36:65:9f:0c:cc:bd:22:22:cf:e6:98:f3:
         1b:0b:ea:15:59:59:f7:5d:b7:61:8c:9e:68:72:b5:70:a9:a0:
         ab:93:5b:f1:c7:d8:32:57:bc:4f:f7:30:8f:fc:11:9c:13:87:
         ad:f9:05:22:d6:58:19:53:92:c1:ec:f5:b5:3a:8f:be:50:33:
         ad:48:69:04:2e:b0:ef:c2:9a:f1:b3:50:22:55:23:d2:61:fc:
         d2:34:2c:9e:7f:78:56:80:ba:4d:d9:7c:76:5c:f6:3b:c1:5d:
         a3:aa:c9:c8:ff:8f:7d:10:da:5a:6b:a7:b5:67:bd:99:aa:82:
         fc:70:47:5f:9c:07:ab:7c:ef:20:19:35:06:31:cd:5b:33:42:
         c1:47:34:22:2f:88:3d:9b:b7:f6:41:b9:92:b8:01:71:73:fa:
         0b:11:a1:26:07:f0:7c:33:b4:1f:64:bb:4a:d8:fd:8d:0f:95:
         25:b6:96:f0:a2:f6:e6:3f:f1:32:14:13:bd:30:16:3c:5f:41:
         3b:25:71:0a:c1:ba:84:c2:1a:3f:38:0a:2d:47:46:a2:e9:41:
         d0:11:54:d8:35:f2:4d:ec:41:2f:68:c7:d0:34:46:8a:79:05:
         6b:ac:28:a3:b7:ca:53:d6:ac:ff:7d:e0:a2:83:17:d9:19:47:
         e8:93:be:40:c7:78:44:3d:c0:13:9c:49:c3:2e:7c:64:5d:ba:
         c6:81:d7:f6:74:f7:eb:5c:71:02:aa:b7:63:a7:d6:a6:65:0e:
         16:e9:21:75:cc:69:15:1b:a7:35:92:70:f8:e5:71:a7:24:a3:
         b0:5e:6e:72:33:07:61:de:b0:96:29:b4:ba:c4:07:b6:9c:8f:
         75:26:e9:31:8b:25:f4:64:b6:2d:98:92:28:15:d6:1e:65:99:
         53:73:9d:62:91:7e:39:3e:10:66:8d:ae:20:d0:0d:b2:0c:2d:
         8d:1e:e7:0c:a4:f3:72:3d:5b:1c:f0:bd:26:70:1f:f0:ff:c5:
         ed:75:f5:a1:a2:66:15:73:3a:c3:76:84:63:26:13:73:d6:94:
         f4:ad:81:7c:b5:d9:a8:d3:31:fb:6c:7c:36:d9:4c:60:8b:be:
         cf:5b:40:32:33:6f:d7:ec:e7:a7:53:ef:7e:a7:cd:c5:29:da:
         3f:c3:b0:6c:da:a1:bf:9a:85:39:a3:ae:0a:0d:24:1a:cd:09:
         72:61:6d:ef:ae:68:4e:a7:ce:12:d7:98:c0:75:2f:47:ab:ba:
         8c:34:84:77:c9:87:05:18
-----BEGIN CERTIFICATE-----
MIIFUjCCAzqgAwIBAgIBATANBgkqhkiG9w0BAQsFADCBizELMAkGA1UEBhMCdXMx
EjAQBgNVBAgMCWxvY2FsaG9zdDESMBAGA1UEBwwJbG9jYWxob3N0MRIwEAYDVQQK
DAlsb2NhbGhvc3QxEjAQBgNVBAsMCWxvY2FsaG9zdDESMBAGA1UEAwwJbG9jYWxo
b3N0MRgwFgYJKoZIhvcNAQkBFglsb2NhbGhvc3QwHhcNMTcxMjA4MDg1NTU1WhcN
MjAwOTAzMDg1NTU1WjBdMQswCQYDVQQGEwJ1czESMBAGA1UECAwJbG9jYWxob3N0
MRIwEAYDVQQHDAlsb2NhbGhvc3QxEjAQBgNVBAoMCWxvY2FsaG9zdDESMBAGA1UE
AwwJbG9jYWxob3N0MIIBIjANBgkqhkiG9w0BAQEFAAOCAQ8AMIIBCgKCAQEAo70Y
WIBsXUECLROfkb+75vU2df2G2z4/izATvDuyjTa9TMt61bej0gfBVE2aa6Sxn7fH
grG5tyoQhAcFDrgXYCOZrCId1AqC2MymeKJXSY9jbvAbH2moVMTJ0p85svfabxFj
gv2fdsiQVQTYcuRYb63T6D5MloqCaFPSPwxLo9e6bNepSX8LTKxA/F4JKhrDKwwq
rdNyBHjeUvwUpL6ACBlooQUNGafe8aAMvKFOS1skQ8gV+DQPcNH+xhWUEC59xjiI
gmR1Bks7GoBVD6utZkanHaoswrD4X8EEAgFWIdad+wqsYg7V6TqZAp1ZKQr5871l
b4k88rtnN4d7LbyU8QIDAQABo4HtMIHqMB0GA1UdDgQWBBR6awJdXRZ1IQv4kyvo
1IYjsiy9ezAfBgNVHSMEGDAWgBR+g5Bs+ECu2GKb4lX7EuhOHz4fyTAJBgNVHRME
AjAAMAsGA1UdDwQEAwIFoDBiBgNVHREEWzBZggtleGFtcGxlLmNvbYIPd3d3LmV4
YW1wbGUuY29tghBtYWlsLmV4YW1wbGUuY29tgg9mdHAuZXhhbXBsZS5jb22HBH8A
AAGHEAAAAAAAAAAAAAAAAAAAAAEwLAYJYIZIAYb4QgENBB8WHU9wZW5TU0wgR2Vu
ZXJhdGVkIENlcnRpZmljYXRlMA0GCSqGSIb3DQEBCwUAA4ICAQBdZMP3LTFlOXnK
AKWwXlZiuRvAQPBz3tukog9PGF8zxkOo3SW4YQ2bnR42ZZ8MzL0iIs/mmPMbC+oV
WVn3XbdhjJ5ocrVwqaCrk1vxx9gyV7xP9zCP/BGcE4et+QUi1lgZU5LB7PW1Oo++
UDOtSGkELrDvwprxs1AiVSPSYfzSNCyef3hWgLpN2Xx2XPY7wV2jqsnI/499ENpa
a6e1Z72ZqoL8cEdfnAerfO8gGTUGMc1bM0LBRzQiL4g9m7f2QbmSuAFxc/oLEaEm
B/B8M7QfZLtK2P2ND5UltpbwovbmP/EyFBO9MBY8X0E7JXEKwbqEwho/OAotR0ai
6UHQEVTYNfJN7EEvaMfQNEaKeQVrrCijt8pT1qz/feCigxfZGUfok75Ax3hEPcAT
nEnDLnxkXbrGgdf2dPfrXHECqrdjp9amZQ4W6SF1zGkVG6c1knD45XGnJKOwXm5y
Mwdh3rCWKbS6xAe2nI91JukxiyX0ZLYtmJIoFdYeZZlTc51ikX45PhBmja4g0A2y
DC2NHucMpPNyPVsc8L0mcB/w/8XtdfWhomYVczrDdoRjJhNz1pT0rYF8tdmo0zH7
bHw22Uxgi77PW0AyM2/X7OenU+9+p83FKdo/w7Bs2qG/moU5o64KDSQazQlyYW3v
rmhOp84S15jAdS9Hq7qMNIR3yYcFGA==
-----END CERTIFICATE-----
